target datalayout = "e-m:e-p270:32:32-p271:32:32-p272:64:64-i64:64-i128:128-f80:128-n8:16:32:64-S128"
target triple = "x86_64-pc-linux-gnu"

@_ZTIN6icu_7714TransliteratorE = constant { ptr, ptr, ptr } { ptr getelementptr inbounds (ptr, ptr @_ZTVN10__cxxabiv120__si_class_type_infoE, i64 2), ptr @_ZTSN6icu_7714TransliteratorE, ptr @_ZTIN6icu_777UObjectE }, align 8
@_ZTIN6icu_7722CompoundTransliteratorE = external constant ptr

; Function Attrs: inlinehint mustprogress nounwind uwtable
define internal noundef signext i8 @_ZL9U_FAILURE10UErrorCode(i32 noundef %0) #2 {
  %2 = alloca i32, align 4
  store i32 %0, ptr %2, align 4, !tbaa !15
  %3 = load i32, ptr %2, align 4, !tbaa !15
  %4 = icmp sgt i32 %3, 0
  %5 = zext i1 %4 to i8
  ret i8 %5
}

; Function Attrs: mustprogress uwtable
define noundef nonnull align 8 dereferenceable(84) ptr @_ZNK6icu_7714Transliterator10getElementEiR10UErrorCode(ptr noundef nonnull align 8 dereferenceable(84) %0, i32 noundef %1, ptr noundef nonnull align 4 dereferenceable(4) %2) #1 align 2 {
  %4 = alloca ptr, align 8
  %5 = alloca ptr, align 8
  %6 = alloca i32, align 4
  %7 = alloca ptr, align 8
  %8 = alloca ptr, align 8
  %9 = alloca i32, align 4
  %10 = alloca i32, align 4
  store ptr %0, ptr %5, align 8, !tbaa !23
  store i32 %1, ptr %6, align 4, !tbaa !14
  store ptr %2, ptr %7, align 8, !tbaa !22
  %11 = load ptr, ptr %5, align 8
  %12 = load ptr, ptr %7, align 8, !tbaa !22
  %13 = load i32, ptr %12, align 4, !tbaa !15
  %14 = call noundef signext i8 @_ZL9U_FAILURE10UErrorCode(i32 noundef %13)
  %15 = icmp ne i8 %14, 0
  br i1 %15, label %16, label %17

16:                                               ; preds = %3
  store ptr %11, ptr %4, align 8
  br label %57

17:                                               ; preds = %3
  call void @llvm.lifetime.start.p0(i64 8, ptr %8) #15
  %18 = icmp eq ptr %11, null
  br i1 %18, label %21, label %19

19:                                               ; preds = %17
  %20 = call ptr @__dynamic_cast(ptr %11, ptr @_ZTIN6icu_7714TransliteratorE, ptr @_ZTIN6icu_7722CompoundTransliteratorE, i64 0) #15
  br label %22

21:                                               ; preds = %17
  br label %22

22:                                               ; preds = %21, %19
  %23 = phi ptr [ %20, %19 ], [ null, %21 ]
  store ptr %23, ptr %8, align 8, !tbaa !130
  call void @llvm.lifetime.start.p0(i64 4, ptr %9) #15
  %24 = load ptr, ptr %8, align 8, !tbaa !130
  %25 = icmp eq ptr %24, null
  br i1 %25, label %26, label %27

26:                                               ; preds = %22
  br label %33

27:                                               ; preds = %22
  %28 = load ptr, ptr %8, align 8, !tbaa !130
  %29 = load ptr, ptr %28, align 8, !tbaa !29
  %30 = getelementptr inbounds ptr, ptr %29, i64 17
  %31 = load ptr, ptr %30, align 8
  %32 = call noundef i32 %31(ptr noundef nonnull align 8 dereferenceable(104) %28)
  br label %33

33:                                               ; preds = %27, %26
  %34 = phi i32 [ 1, %26 ], [ %32, %27 ]
  store i32 %34, ptr %9, align 4, !tbaa !14
  %35 = load i32, ptr %6, align 4, !tbaa !14
  %36 = icmp slt i32 %35, 0
  br i1 %36, label %41, label %37

37:                                               ; preds = %33
  %38 = load i32, ptr %6, align 4, !tbaa !14
  %39 = load i32, ptr %9, align 4, !tbaa !14
  %40 = icmp sge i32 %38, %39
  br i1 %40, label %41, label %43

41:                                               ; preds = %37, %33
  %42 = load ptr, ptr %7, align 8, !tbaa !22
  store i32 8, ptr %42, align 4, !tbaa !15
  store ptr %11, ptr %4, align 8
  store i32 1, ptr %10, align 4
  br label %56

43:                                               ; preds = %37
  %44 = load i32, ptr %9, align 4, !tbaa !14
  %45 = icmp eq i32 %44, 1
  br i1 %45, label %46, label %47

46:                                               ; preds = %43
  br label %54

47:                                               ; preds = %43
  %48 = load ptr, ptr %8, align 8, !tbaa !130
  %49 = load i32, ptr %6, align 4, !tbaa !14
  %50 = load ptr, ptr %48, align 8, !tbaa !29
  %51 = getelementptr inbounds ptr, ptr %50, i64 18
  %52 = load ptr, ptr %51, align 8
  %53 = call noundef nonnull align 8 dereferenceable(84) ptr %52(ptr noundef nonnull align 8 dereferenceable(104) %48, i32 noundef %49)
  br label %54

54:                                               ; preds = %47, %46
  %55 = phi ptr [ %11, %46 ], [ %53, %47 ]
  store ptr %55, ptr %4, align 8
  store i32 1, ptr %10, align 4
  br label %56

56:                                               ; preds = %54, %41
  call void @llvm.lifetime.end.p0(i64 4, ptr %9) #15
  call void @llvm.lifetime.end.p0(i64 8, ptr %8) #15
  br label %57

57:                                               ; preds = %56, %16
  %58 = load ptr, ptr %4, align 8
  ret ptr %58
}