; Function Attrs: mustprogress uwtable
define noundef nonnull align 8 dereferenceable(84) ptr @_ZNK6icu_7714Transliterator10getElementEiR10UErrorCode(ptr noundef nonnull align 8 dereferenceable(84) %0, i32 noundef %1, ptr noundef nonnull align 4 captures(none) dereferenceable(4) %2) local_unnamed_addr #1 align 2 {
  %4 = load i32, ptr %2, align 4, !tbaa !13
  %5 = icmp slt i32 %4, 1
  br i1 %5, label %6, label %.thread17

6:                                                ; preds = %3
  %7 = tail call ptr @__dynamic_cast(ptr nonnull %0, ptr nonnull @_ZTIN6icu_7714TransliteratorE, ptr nonnull @_ZTIN6icu_7722CompoundTransliteratorE, i64 0) #21
  %8 = icmp eq ptr %7, null
  br i1 %8, label %.thread, label %9

9:                                                ; preds = %6
  %10 = load ptr, ptr %7, align 8, !tbaa !15
  %11 = getelementptr inbounds nuw i8, ptr %10, i64 136
  %12 = load ptr, ptr %11, align 8
  %13 = tail call noundef i32 %12(ptr noundef nonnull align 8 dereferenceable(104) %7)
  %14 = icmp sgt i32 %1, -1
  %.not14 = icmp slt i32 %1, %13
  %or.cond = and i1 %14, %.not14
  br i1 %or.cond, label %16, label %15

.thread:                                          ; preds = %6
  %or.cond16 = icmp eq i32 %1, 0
  br i1 %or.cond16, label %.thread17, label %15

15:                                               ; preds = %.thread, %9
  store i32 8, ptr %2, align 4, !tbaa !13
  br label %.thread17

16:                                               ; preds = %9
  %17 = icmp eq i32 %13, 1
  br i1 %17, label %.thread17, label %18

18:                                               ; preds = %16
  %19 = load ptr, ptr %7, align 8, !tbaa !15
  %20 = getelementptr inbounds nuw i8, ptr %19, i64 144
  %21 = load ptr, ptr %20, align 8
  %22 = tail call noundef nonnull align 8 dereferenceable(84) ptr %21(ptr noundef nonnull align 8 dereferenceable(104) %7, i32 noundef %1)
  br label %.thread17

.thread17:                                        ; preds = %.thread, %15, %16, %18, %3
  %.0 = phi ptr [ %0, %3 ], [ %0, %15 ], [ %22, %18 ], [ %0, %16 ], [ %0, %.thread ]
  ret ptr %.0
}